target datalayout = "e-m:e-p270:32:32-p271:32:32-p272:64:64-i64:64-i128:128-f80:128-n8:16:32:64-S128"
target triple = "x86_64-unknown-linux-gnu"

%"struct.(anonymous namespace)::bool_var_act_lt" = type { ptr }
%"class.(anonymous namespace)::dact_case_split_queue" = type { %"class.(anonymous namespace)::act_case_split_queue", %class.heap }
%"class.(anonymous namespace)::act_case_split_queue" = type { %"class.smt::case_split_queue", ptr, ptr, %class.heap }
%"class.smt::case_split_queue" = type { ptr }
%class.heap = type { %"struct.(anonymous namespace)::bool_var_act_lt", %class.svector.86, %class.svector.86 }
%class.svector.86 = type { %class.vector.87 }
%class.vector.87 = type { ptr }

; Function Attrs: mustprogress uwtable
define linkonce_odr hidden noundef nonnull align 8 dereferenceable(8) ptr @_ZN6vectorIiLb0EjE9push_backEOi(ptr noundef nonnull align 8 dereferenceable(8) %this, ptr noundef nonnull align 4 dereferenceable(4) %elem) #5 comdat align 2 {
entry:
  %this.addr = alloca ptr, align 8
  %elem.addr = alloca ptr, align 8
  store ptr %this, ptr %this.addr, align 8
  store ptr %elem, ptr %elem.addr, align 8
  %this1 = load ptr, ptr %this.addr, align 8
  %m_data = getelementptr inbounds %class.vector.87, ptr %this1, i32 0, i32 0
  %0 = load ptr, ptr %m_data, align 8
  %cmp = icmp eq ptr %0, null
  br i1 %cmp, label %if.then, label %lor.lhs.false

lor.lhs.false:                                    ; preds = %entry
  %m_data2 = getelementptr inbounds %class.vector.87, ptr %this1, i32 0, i32 0
  %1 = load ptr, ptr %m_data2, align 8
  %arrayidx = getelementptr inbounds i32, ptr %1, i64 -1
  %2 = load i32, ptr %arrayidx, align 4
  %m_data3 = getelementptr inbounds %class.vector.87, ptr %this1, i32 0, i32 0
  %3 = load ptr, ptr %m_data3, align 8
  %arrayidx4 = getelementptr inbounds i32, ptr %3, i64 -2
  %4 = load i32, ptr %arrayidx4, align 4
  %cmp5 = icmp eq i32 %2, %4
  br i1 %cmp5, label %if.then, label %if.end

if.then:                                          ; preds = %lor.lhs.false, %entry
  call void @_ZN6vectorIiLb0EjE13expand_vectorEv(ptr noundef nonnull align 8 dereferenceable(8) %this1)
  br label %if.end

if.end:                                           ; preds = %if.then, %lor.lhs.false
  %m_data6 = getelementptr inbounds %class.vector.87, ptr %this1, i32 0, i32 0
  %5 = load ptr, ptr %m_data6, align 8
  %m_data7 = getelementptr inbounds %class.vector.87, ptr %this1, i32 0, i32 0
  %6 = load ptr, ptr %m_data7, align 8
  %arrayidx8 = getelementptr inbounds i32, ptr %6, i64 -1
  %7 = load i32, ptr %arrayidx8, align 4
  %idx.ext = zext i32 %7 to i64
  %add.ptr = getelementptr inbounds i32, ptr %5, i64 %idx.ext
  %8 = load ptr, ptr %elem.addr, align 8
  %9 = load i32, ptr %8, align 4
  store i32 %9, ptr %add.ptr, align 4
  %m_data9 = getelementptr inbounds %class.vector.87, ptr %this1, i32 0, i32 0
  %10 = load ptr, ptr %m_data9, align 8
  %arrayidx10 = getelementptr inbounds i32, ptr %10, i64 -1
  %11 = load i32, ptr %arrayidx10, align 4
  %inc = add i32 %11, 1
  store i32 %inc, ptr %arrayidx10, align 4
  ret ptr %this1
}

; Function Attrs: mustprogress nounwind uwtable
define linkonce_odr hidden void @_ZN6vectorIiLb0EjE5resetEv(ptr noundef nonnull align 8 dereferenceable(8) %this) #4 comdat align 2 {
entry:
  %this.addr = alloca ptr, align 8
  store ptr %this, ptr %this.addr, align 8
  %this1 = load ptr, ptr %this.addr, align 8
  %m_data = getelementptr inbounds %class.vector.87, ptr %this1, i32 0, i32 0
  %0 = load ptr, ptr %m_data, align 8
  %tobool = icmp ne ptr %0, null
  br i1 %tobool, label %if.then, label %if.end

if.then:                                          ; preds = %entry
  %m_data2 = getelementptr inbounds %class.vector.87, ptr %this1, i32 0, i32 0
  %1 = load ptr, ptr %m_data2, align 8
  %arrayidx = getelementptr inbounds i32, ptr %1, i64 -1
  store i32 0, ptr %arrayidx, align 4
  br label %if.end

if.end:                                           ; preds = %if.then, %entry
  ret void
}

; Function Attrs: mustprogress nounwind uwtable
define linkonce_odr hidden noundef i32 @_ZNK6vectorIiLb0EjE4sizeEv(ptr noundef nonnull align 8 dereferenceable(8) %this) #4 comdat align 2 {
entry:
  %retval = alloca i32, align 4
  %this.addr = alloca ptr, align 8
  store ptr %this, ptr %this.addr, align 8
  %this1 = load ptr, ptr %this.addr, align 8
  %m_data = getelementptr inbounds %class.vector.87, ptr %this1, i32 0, i32 0
  %0 = load ptr, ptr %m_data, align 8
  %cmp = icmp eq ptr %0, null
  br i1 %cmp, label %if.then, label %if.end

if.then:                                          ; preds = %entry
  store i32 0, ptr %retval, align 4
  br label %return

if.end:                                           ; preds = %entry
  %m_data2 = getelementptr inbounds %class.vector.87, ptr %this1, i32 0, i32 0
  %1 = load ptr, ptr %m_data2, align 8
  %arrayidx = getelementptr inbounds i32, ptr %1, i64 -1
  %2 = load i32, ptr %arrayidx, align 4
  store i32 %2, ptr %retval, align 4
  br label %return

return:                                           ; preds = %if.end, %if.then
  %3 = load i32, ptr %retval, align 4
  ret i32 %3
}

; Function Attrs: mustprogress nounwind uwtable
define linkonce_odr hidden noundef ptr @_ZNK6vectorIiLb0EjE4dataEv(ptr noundef nonnull align 8 dereferenceable(8) %this) #4 comdat align 2 {
entry:
  %this.addr = alloca ptr, align 8
  store ptr %this, ptr %this.addr, align 8
  %this1 = load ptr, ptr %this.addr, align 8
  %m_data = getelementptr inbounds %class.vector.87, ptr %this1, i32 0, i32 0
  %0 = load ptr, ptr %m_data, align 8
  ret ptr %0
}

; Function Attrs: mustprogress nounwind uwtable
define internal noundef zeroext i1 @_ZNK4heapIN12_GLOBAL__N_115bool_var_act_ltEE5emptyEv(ptr noundef nonnull align 8 dereferenceable(24) %this) #4 align 2 {
entry:
  %this.addr = alloca ptr, align 8
  store ptr %this, ptr %this.addr, align 8
  %this1 = load ptr, ptr %this.addr, align 8
  %m_values = getelementptr inbounds %class.heap, ptr %this1, i32 0, i32 1
  %call = call noundef i32 @_ZNK6vectorIiLb0EjE4sizeEv(ptr noundef nonnull align 8 dereferenceable(8) %m_values)
  %cmp = icmp eq i32 %call, 1
  ret i1 %cmp
}

; Function Attrs: mustprogress uwtable
define internal void @_ZN4heapIN12_GLOBAL__N_115bool_var_act_ltEE5resetEv(ptr noundef nonnull align 8 dereferenceable(24) %this) #5 align 2 {
entry:
  %this.addr = alloca ptr, align 8
  %ref.tmp = alloca i32, align 4
  store ptr %this, ptr %this.addr, align 8
  %this1 = load ptr, ptr %this.addr, align 8
  %call = call noundef zeroext i1 @_ZNK4heapIN12_GLOBAL__N_115bool_var_act_ltEE5emptyEv(ptr noundef nonnull align 8 dereferenceable(24) %this1)
  br i1 %call, label %if.then, label %if.end

if.then:                                          ; preds = %entry
  br label %return

if.end:                                           ; preds = %entry
  %m_value2indices = getelementptr inbounds %class.heap, ptr %this1, i32 0, i32 2
  %call2 = call noundef ptr @_ZNK6vectorIiLb0EjE4dataEv(ptr noundef nonnull align 8 dereferenceable(8) %m_value2indices)
  %m_value2indices3 = getelementptr inbounds %class.heap, ptr %this1, i32 0, i32 2
  %call4 = call noundef i32 @_ZNK6vectorIiLb0EjE4sizeEv(ptr noundef nonnull align 8 dereferenceable(8) %m_value2indices3)
  %conv = zext i32 %call4 to i64
  %mul = mul i64 4, %conv
  call void @llvm.memset.p0.i64(ptr align 4 %call2, i8 0, i64 %mul, i1 false)
  %m_values = getelementptr inbounds %class.heap, ptr %this1, i32 0, i32 1
  call void @_ZN6vectorIiLb0EjE5resetEv(ptr noundef nonnull align 8 dereferenceable(8) %m_values)
  %m_values5 = getelementptr inbounds %class.heap, ptr %this1, i32 0, i32 1
  store i32 -1, ptr %ref.tmp, align 4
  %call6 = call noundef nonnull align 8 dereferenceable(8) ptr @_ZN6vectorIiLb0EjE9push_backEOi(ptr noundef nonnull align 8 dereferenceable(8) %m_values5, ptr noundef nonnull align 4 dereferenceable(4) %ref.tmp)
  br label %return

return:                                           ; preds = %if.end, %if.then
  ret void
}

; Function Attrs: mustprogress uwtable
define internal void @_ZN12_GLOBAL__N_120act_case_split_queue5resetEv(ptr noundef nonnull align 8 dereferenceable(48) %this) unnamed_addr #5 align 2 {
entry:
  %this.addr = alloca ptr, align 8
  store ptr %this, ptr %this.addr, align 8
  %this1 = load ptr, ptr %this.addr, align 8
  %m_queue = getelementptr inbounds %"class.(anonymous namespace)::act_case_split_queue", ptr %this1, i32 0, i32 3
  call void @_ZN4heapIN12_GLOBAL__N_115bool_var_act_ltEE5resetEv(ptr noundef nonnull align 8 dereferenceable(24) %m_queue)
  ret void
}

; Function Attrs: mustprogress uwtable
define internal void @_ZN12_GLOBAL__N_121dact_case_split_queue5resetEv(ptr noundef nonnull align 8 dereferenceable(72) %this) unnamed_addr #5 align 2 {
entry:
  %this.addr = alloca ptr, align 8
  store ptr %this, ptr %this.addr, align 8
  %this1 = load ptr, ptr %this.addr, align 8
  call void @_ZN12_GLOBAL__N_120act_case_split_queue5resetEv(ptr noundef nonnull align 8 dereferenceable(48) %this1)
  %m_delayed_queue = getelementptr inbounds %"class.(anonymous namespace)::dact_case_split_queue", ptr %this1, i32 0, i32 1
  call void @_ZN4heapIN12_GLOBAL__N_115bool_var_act_ltEE5resetEv(ptr noundef nonnull align 8 dereferenceable(24) %m_delayed_queue)
  ret void
}