; Function Attrs: mustprogress uwtable
define internal void @_ZN12_GLOBAL__N_121dact_case_split_queue5resetEv(ptr noundef nonnull align 8 dereferenceable(72) %this) unnamed_addr #3 align 2 {
entry:
  %0 = getelementptr inbounds i8, ptr %this, i64 32
  %this.val.i.i = load ptr, ptr %0, align 8
  %cmp.i.i.i.i = icmp eq ptr %this.val.i.i, null
  br i1 %cmp.i.i.i.i, label %if.end.i.i, label %_ZNK4heapIN12_GLOBAL__N_115bool_var_act_ltEE5emptyEv.exit.i.i

_ZNK4heapIN12_GLOBAL__N_115bool_var_act_ltEE5emptyEv.exit.i.i: ; preds = %entry
  %arrayidx.i.i.i.i = getelementptr inbounds i8, ptr %this.val.i.i, i64 -4
  %1 = load i32, ptr %arrayidx.i.i.i.i, align 4
  %2 = icmp eq i32 %1, 1
  br i1 %2, label %_ZN12_GLOBAL__N_120act_case_split_queue5resetEv.exit, label %if.end.i.i

if.end.i.i:                                       ; preds = %_ZNK4heapIN12_GLOBAL__N_115bool_var_act_ltEE5emptyEv.exit.i.i, %entry
  %m_value2indices.i.i = getelementptr inbounds i8, ptr %this, i64 40
  %3 = load ptr, ptr %m_value2indices.i.i, align 8
  %cmp.i.i.i = icmp eq ptr %3, null
  br i1 %cmp.i.i.i, label %_ZNK6vectorIiLb0EjE4sizeEv.exit.i.i, label %if.end.i.i.i

if.end.i.i.i:                                     ; preds = %if.end.i.i
  %arrayidx.i.i.i = getelementptr inbounds i8, ptr %3, i64 -4
  %4 = load i32, ptr %arrayidx.i.i.i, align 4
  %5 = zext i32 %4 to i64
  %6 = shl nuw nsw i64 %5, 2
  br label %_ZNK6vectorIiLb0EjE4sizeEv.exit.i.i

_ZNK6vectorIiLb0EjE4sizeEv.exit.i.i:              ; preds = %if.end.i.i.i, %if.end.i.i
  %retval.0.i.i.i = phi i64 [ %6, %if.end.i.i.i ], [ 0, %if.end.i.i ]
  tail call void @llvm.memset.p0.i64(ptr align 4 %3, i8 0, i64 %retval.0.i.i.i, i1 false)
  %7 = load ptr, ptr %0, align 8
  %tobool.not.i.i.i = icmp eq ptr %7, null
  br i1 %tobool.not.i.i.i, label %if.then.i6.i.i, label %_ZN6vectorIiLb0EjE5resetEv.exit.i.i

_ZN6vectorIiLb0EjE5resetEv.exit.i.i:              ; preds = %_ZNK6vectorIiLb0EjE4sizeEv.exit.i.i
  %arrayidx.i1.i.i = getelementptr inbounds i8, ptr %7, i64 -4
  store i32 0, ptr %arrayidx.i1.i.i, align 4
  %.pr.i.i = load ptr, ptr %0, align 8
  %cmp.i3.i.i = icmp eq ptr %.pr.i.i, null
  br i1 %cmp.i3.i.i, label %if.then.i6.i.i, label %lor.lhs.false.i.i.i

lor.lhs.false.i.i.i:                              ; preds = %_ZN6vectorIiLb0EjE5resetEv.exit.i.i
  %arrayidx.i4.i.i = getelementptr inbounds i8, ptr %.pr.i.i, i64 -4
  %8 = load i32, ptr %arrayidx.i4.i.i, align 4
  %arrayidx4.i.i.i = getelementptr inbounds i8, ptr %.pr.i.i, i64 -8
  %9 = load i32, ptr %arrayidx4.i.i.i, align 4
  %cmp5.i.i.i = icmp eq i32 %8, %9
  br i1 %cmp5.i.i.i, label %if.then.i6.i.i, label %_ZN6vectorIiLb0EjE9push_backEOi.exit.i.i

if.then.i6.i.i:                                   ; preds = %lor.lhs.false.i.i.i, %_ZN6vectorIiLb0EjE5resetEv.exit.i.i, %_ZNK6vectorIiLb0EjE4sizeEv.exit.i.i
  tail call void @_ZN6vectorIiLb0EjE13expand_vectorEv(ptr noundef nonnull align 8 dereferenceable(8) %0)
  %.pre.i.i.i = load ptr, ptr %0, align 8
  %arrayidx8.phi.trans.insert.i.i.i = getelementptr inbounds i8, ptr %.pre.i.i.i, i64 -4
  %.pre1.i.i.i = load i32, ptr %arrayidx8.phi.trans.insert.i.i.i, align 4
  br label %_ZN6vectorIiLb0EjE9push_backEOi.exit.i.i

_ZN6vectorIiLb0EjE9push_backEOi.exit.i.i:         ; preds = %if.then.i6.i.i, %lor.lhs.false.i.i.i
  %10 = phi i32 [ %.pre1.i.i.i, %if.then.i6.i.i ], [ %8, %lor.lhs.false.i.i.i ]
  %11 = phi ptr [ %.pre.i.i.i, %if.then.i6.i.i ], [ %.pr.i.i, %lor.lhs.false.i.i.i ]
  %idx.ext.i.i.i = zext i32 %10 to i64
  %add.ptr.i.i.i = getelementptr inbounds i32, ptr %11, i64 %idx.ext.i.i.i
  store i32 -1, ptr %add.ptr.i.i.i, align 4
  %12 = load ptr, ptr %0, align 8
  %arrayidx10.i.i.i = getelementptr inbounds i8, ptr %12, i64 -4
  %13 = load i32, ptr %arrayidx10.i.i.i, align 4
  %inc.i.i.i = add i32 %13, 1
  store i32 %inc.i.i.i, ptr %arrayidx10.i.i.i, align 4
  br label %_ZN12_GLOBAL__N_120act_case_split_queue5resetEv.exit

_ZN12_GLOBAL__N_120act_case_split_queue5resetEv.exit: ; preds = %_ZNK4heapIN12_GLOBAL__N_115bool_var_act_ltEE5emptyEv.exit.i.i, %_ZN6vectorIiLb0EjE9push_backEOi.exit.i.i
  %14 = getelementptr inbounds i8, ptr %this, i64 56
  %this.val.i = load ptr, ptr %14, align 8
  %cmp.i.i.i1 = icmp eq ptr %this.val.i, null
  br i1 %cmp.i.i.i1, label %if.end.i, label %_ZNK4heapIN12_GLOBAL__N_115bool_var_act_ltEE5emptyEv.exit.i

_ZNK4heapIN12_GLOBAL__N_115bool_var_act_ltEE5emptyEv.exit.i: ; preds = %_ZN12_GLOBAL__N_120act_case_split_queue5resetEv.exit
  %arrayidx.i.i.i2 = getelementptr inbounds i8, ptr %this.val.i, i64 -4
  %15 = load i32, ptr %arrayidx.i.i.i2, align 4
  %16 = icmp eq i32 %15, 1
  br i1 %16, label %_ZN4heapIN12_GLOBAL__N_115bool_var_act_ltEE5resetEv.exit, label %if.end.i

if.end.i:                                         ; preds = %_ZNK4heapIN12_GLOBAL__N_115bool_var_act_ltEE5emptyEv.exit.i, %_ZN12_GLOBAL__N_120act_case_split_queue5resetEv.exit
  %m_value2indices.i = getelementptr inbounds i8, ptr %this, i64 64
  %17 = load ptr, ptr %m_value2indices.i, align 8
  %cmp.i.i = icmp eq ptr %17, null
  br i1 %cmp.i.i, label %_ZNK6vectorIiLb0EjE4sizeEv.exit.i, label %if.end.i.i3

if.end.i.i3:                                      ; preds = %if.end.i
  %arrayidx.i.i = getelementptr inbounds i8, ptr %17, i64 -4
  %18 = load i32, ptr %arrayidx.i.i, align 4
  %19 = zext i32 %18 to i64
  %20 = shl nuw nsw i64 %19, 2
  br label %_ZNK6vectorIiLb0EjE4sizeEv.exit.i

_ZNK6vectorIiLb0EjE4sizeEv.exit.i:                ; preds = %if.end.i.i3, %if.end.i
  %retval.0.i.i = phi i64 [ %20, %if.end.i.i3 ], [ 0, %if.end.i ]
  tail call void @llvm.memset.p0.i64(ptr align 4 %17, i8 0, i64 %retval.0.i.i, i1 false)
  %21 = load ptr, ptr %14, align 8
  %tobool.not.i.i = icmp eq ptr %21, null
  br i1 %tobool.not.i.i, label %if.then.i6.i, label %_ZN6vectorIiLb0EjE5resetEv.exit.i

_ZN6vectorIiLb0EjE5resetEv.exit.i:                ; preds = %_ZNK6vectorIiLb0EjE4sizeEv.exit.i
  %arrayidx.i1.i = getelementptr inbounds i8, ptr %21, i64 -4
  store i32 0, ptr %arrayidx.i1.i, align 4
  %.pr.i = load ptr, ptr %14, align 8
  %cmp.i3.i = icmp eq ptr %.pr.i, null
  br i1 %cmp.i3.i, label %if.then.i6.i, label %lor.lhs.false.i.i

lor.lhs.false.i.i:                                ; preds = %_ZN6vectorIiLb0EjE5resetEv.exit.i
  %arrayidx.i4.i = getelementptr inbounds i8, ptr %.pr.i, i64 -4
  %22 = load i32, ptr %arrayidx.i4.i, align 4
  %arrayidx4.i.i = getelementptr inbounds i8, ptr %.pr.i, i64 -8
  %23 = load i32, ptr %arrayidx4.i.i, align 4
  %cmp5.i.i = icmp eq i32 %22, %23
  br i1 %cmp5.i.i, label %if.then.i6.i, label %_ZN6vectorIiLb0EjE9push_backEOi.exit.i

if.then.i6.i:                                     ; preds = %lor.lhs.false.i.i, %_ZN6vectorIiLb0EjE5resetEv.exit.i, %_ZNK6vectorIiLb0EjE4sizeEv.exit.i
  tail call void @_ZN6vectorIiLb0EjE13expand_vectorEv(ptr noundef nonnull align 8 dereferenceable(8) %14)
  %.pre.i.i = load ptr, ptr %14, align 8
  %arrayidx8.phi.trans.insert.i.i = getelementptr inbounds i8, ptr %.pre.i.i, i64 -4
  %.pre1.i.i = load i32, ptr %arrayidx8.phi.trans.insert.i.i, align 4
  br label %_ZN6vectorIiLb0EjE9push_backEOi.exit.i

_ZN6vectorIiLb0EjE9push_backEOi.exit.i:           ; preds = %if.then.i6.i, %lor.lhs.false.i.i
  %24 = phi i32 [ %.pre1.i.i, %if.then.i6.i ], [ %22, %lor.lhs.false.i.i ]
  %25 = phi ptr [ %.pre.i.i, %if.then.i6.i ], [ %.pr.i, %lor.lhs.false.i.i ]
  %idx.ext.i.i = zext i32 %24 to i64
  %add.ptr.i.i = getelementptr inbounds i32, ptr %25, i64 %idx.ext.i.i
  store i32 -1, ptr %add.ptr.i.i, align 4
  %26 = load ptr, ptr %14, align 8
  %arrayidx10.i.i = getelementptr inbounds i8, ptr %26, i64 -4
  %27 = load i32, ptr %arrayidx10.i.i, align 4
  %inc.i.i = add i32 %27, 1
  store i32 %inc.i.i, ptr %arrayidx10.i.i, align 4
  br label %_ZN4heapIN12_GLOBAL__N_115bool_var_act_ltEE5resetEv.exit

_ZN4heapIN12_GLOBAL__N_115bool_var_act_ltEE5resetEv.exit: ; preds = %_ZNK4heapIN12_GLOBAL__N_115bool_var_act_ltEE5emptyEv.exit.i, %_ZN6vectorIiLb0EjE9push_backEOi.exit.i
  ret void
}